; Function Attrs: nounwind uwtable
define range(i64 -1, -9223372036854775808) i64 @H5Tcreate(i32 noundef %0, i64 noundef %1) local_unnamed_addr #0 {
  %3 = load i8, ptr @H5_libinit_g, align 1
  %4 = trunc i8 %3 to i1
  %5 = load i8, ptr @H5_libterm_g, align 1
  %6 = trunc i8 %5 to i1
  %7 = select i1 %4, i1 true, i1 %6
  br i1 %7, label %15, label %8

8:                                                ; preds = %2
  %9 = tail call i32 @H5_init_library() #17
  %10 = icmp slt i32 %9, 0
  br i1 %10, label %11, label %15

11:                                               ; preds = %8
  %12 = load i64, ptr @H5E_FUNC_g, align 8
  %13 = load i64, ptr @H5E_CANTINIT_g, align 8
  %14 = tail call i32 (ptr, ptr, i32, i64, i64, ptr, ...) @H5E_printf_stack(ptr noundef nonnull @.str.2, ptr noundef nonnull @__func__.H5Tcreate, i32 noundef 1922, i64 noundef %12, i64 noundef %13, ptr noundef nonnull @.str.221) #17
  br label %.thread25

15:                                               ; preds = %8, %2
  %16 = tail call i32 @H5CX_push() #17
  %17 = icmp slt i32 %16, 0
  br i1 %17, label %18, label %22

18:                                               ; preds = %15
  %19 = load i64, ptr @H5E_FUNC_g, align 8
  %20 = load i64, ptr @H5E_CANTSET_g, align 8
  %21 = tail call i32 (ptr, ptr, i32, i64, i64, ptr, ...) @H5E_printf_stack(ptr noundef nonnull @.str.2, ptr noundef nonnull @__func__.H5Tcreate, i32 noundef 1922, i64 noundef %19, i64 noundef %20, ptr noundef nonnull @.str.222) #17
  br label %.thread25

22:                                               ; preds = %15
  %23 = tail call i32 @H5E_clear_stack() #17
  %24 = icmp eq i64 %1, 0
  br i1 %24, label %25, label %29

25:                                               ; preds = %22
  %26 = load i64, ptr @H5E_ARGS_g, align 8
  %27 = load i64, ptr @H5E_BADVALUE_g, align 8
  %28 = tail call i32 (ptr, ptr, i32, i64, i64, ptr, ...) @H5E_printf_stack(ptr noundef nonnull @.str.2, ptr noundef nonnull @__func__.H5Tcreate, i32 noundef 1926, i64 noundef %26, i64 noundef %27, ptr noundef nonnull @.str.223) #17
  br label %.thread31

29:                                               ; preds = %22
  %30 = tail call ptr @H5T__create(i32 noundef %0, i64 noundef %1)
  %31 = icmp eq ptr %30, null
  br i1 %31, label %32, label %36

32:                                               ; preds = %29
  %33 = load i64, ptr @H5E_DATATYPE_g, align 8
  %34 = load i64, ptr @H5E_CANTINIT_g, align 8
  %35 = tail call i32 (ptr, ptr, i32, i64, i64, ptr, ...) @H5E_printf_stack(ptr noundef nonnull @.str.2, ptr noundef nonnull @__func__.H5Tcreate, i32 noundef 1930, i64 noundef %33, i64 noundef %34, ptr noundef nonnull @.str.224) #17
  br label %.thread31

36:                                               ; preds = %29
  %37 = tail call i64 @H5I_register(i32 noundef 3, ptr noundef nonnull %30, i1 noundef zeroext true) #17
  %38 = icmp slt i64 %37, 0
  br i1 %38, label %39, label %44

39:                                               ; preds = %36
  %40 = load i64, ptr @H5E_DATATYPE_g, align 8
  %41 = load i64, ptr @H5E_CANTREGISTER_g, align 8
  %42 = tail call i32 (ptr, ptr, i32, i64, i64, ptr, ...) @H5E_printf_stack(ptr noundef nonnull @.str.2, ptr noundef nonnull @__func__.H5Tcreate, i32 noundef 1934, i64 noundef %40, i64 noundef %41, ptr noundef nonnull @.str.225) #17
  br label %.thread31

.thread31:                                        ; preds = %39, %32, %25
  %43 = tail call i32 @H5CX_pop(i1 noundef zeroext true) #17
  br label %.thread25

44:                                               ; preds = %36
  %45 = tail call i32 @H5CX_pop(i1 noundef zeroext true) #17
  br label %47

.thread25:                                        ; preds = %18, %11, %.thread31
  %46 = tail call i32 @H5E_dump_api_stack() #17
  br label %47

47:                                               ; preds = %44, %.thread25
  %.0142028 = phi i64 [ -1, %.thread25 ], [ %37, %44 ]
  ret i64 %.0142028
}